target datalayout = "e-m:e-p270:32:32-p271:32:32-p272:64:64-i64:64-i128:128-f80:128-n8:16:32:64-S128"
target triple = "x86_64-pc-linux-gnu"

%struct.strbuf = type { i64, i64, ptr }

@__const.system_path.d = private unnamed_addr constant %struct.strbuf { i64 0, i64 0, ptr @strbuf_slopbuf }, align 8
@.str = private unnamed_addr constant [6 x i8] c"%s/%s\00", align 1
@exec_path_value = internal global ptr null, align 8
@.str.1 = private unnamed_addr constant [14 x i8] c"GIT_EXEC_PATH\00", align 1
@.str.2 = private unnamed_addr constant [28 x i8] c"/usr/local/libexec/git-core\00", align 1
@.str.10 = private unnamed_addr constant [11 x i8] c"/usr/local\00", align 1

; Function Attrs: inlinehint nounwind uwtable
define internal i32 @git_has_dos_drive_prefix(ptr noundef %0) #3 {
  %2 = alloca ptr, align 8
  store ptr %0, ptr %2, align 8, !tbaa !4
  ret i32 0
}

; Function Attrs: inlinehint nounwind uwtable
define internal i32 @git_is_dir_sep(i32 noundef %0) #3 {
  %2 = alloca i32, align 4
  store i32 %0, ptr %2, align 4, !tbaa !21
  %3 = load i32, ptr %2, align 4, !tbaa !21
  %4 = icmp eq i32 %3, 47
  %5 = zext i1 %4 to i32
  ret i32 %5
}

; Function Attrs: nounwind uwtable
define internal ptr @system_prefix() #0 {
  ret ptr @.str.10
}

; Function Attrs: inlinehint nounwind uwtable
define internal i32 @is_absolute_path(ptr noundef %0) #3 {
  %2 = alloca ptr, align 8
  store ptr %0, ptr %2, align 8, !tbaa !4
  %3 = load ptr, ptr %2, align 8, !tbaa !4
  %4 = getelementptr inbounds i8, ptr %3, i64 0
  %5 = load i8, ptr %4, align 1, !tbaa !9
  %6 = sext i8 %5 to i32
  %7 = call i32 @git_is_dir_sep(i32 noundef %6)
  %8 = icmp ne i32 %7, 0
  br i1 %8, label %13, label %9

9:                                                ; preds = %1
  %10 = load ptr, ptr %2, align 8, !tbaa !4
  %11 = call i32 @git_has_dos_drive_prefix(ptr noundef %10)
  %12 = icmp ne i32 %11, 0
  br label %13

13:                                               ; preds = %9, %1
  %14 = phi i1 [ true, %1 ], [ %12, %9 ]
  %15 = zext i1 %14 to i32
  ret i32 %15
}

; Function Attrs: nounwind uwtable
define dso_local ptr @system_path(ptr noundef %0) #0 {
  %2 = alloca ptr, align 8
  %3 = alloca ptr, align 8
  %4 = alloca %struct.strbuf, align 8
  %5 = alloca i32, align 4
  store ptr %0, ptr %3, align 8, !tbaa !4
  call void @llvm.lifetime.start.p0(i64 24, ptr %4) #9
  call void @llvm.memcpy.p0.p0.i64(ptr align 8 %4, ptr align 8 @__const.system_path.d, i64 24, i1 false)
  %6 = load ptr, ptr %3, align 8, !tbaa !4
  %7 = call i32 @is_absolute_path(ptr noundef %6)
  %8 = icmp ne i32 %7, 0
  br i1 %8, label %9, label %12

9:                                                ; preds = %1
  %10 = load ptr, ptr %3, align 8, !tbaa !4
  %11 = call ptr @xstrdup(ptr noundef %10)
  store ptr %11, ptr %2, align 8
  store i32 1, ptr %5, align 4
  br label %16

12:                                               ; preds = %1
  %13 = call ptr @system_prefix()
  %14 = load ptr, ptr %3, align 8, !tbaa !4
  call void (ptr, ptr, ...) @strbuf_addf(ptr noundef %4, ptr noundef @.str, ptr noundef %13, ptr noundef %14)
  %15 = call ptr @strbuf_detach(ptr noundef %4, ptr noundef null)
  store ptr %15, ptr %2, align 8
  store i32 1, ptr %5, align 4
  br label %16

16:                                               ; preds = %12, %9
  call void @llvm.lifetime.end.p0(i64 24, ptr %4) #9
  %17 = load ptr, ptr %2, align 8
  ret ptr %17
}

; Function Attrs: nounwind uwtable
define dso_local ptr @git_exec_path() #0 {
  %1 = alloca ptr, align 8
  %2 = load ptr, ptr @exec_path_value, align 8, !tbaa !4
  %3 = icmp ne ptr %2, null
  br i1 %3, label %19, label %4

4:                                                ; preds = %0
  call void @llvm.lifetime.start.p0(i64 8, ptr %1) #9
  %5 = call ptr @getenv(ptr noundef @.str.1) #9
  store ptr %5, ptr %1, align 8, !tbaa !4
  %6 = load ptr, ptr %1, align 8, !tbaa !4
  %7 = icmp ne ptr %6, null
  br i1 %7, label %8, label %16

8:                                                ; preds = %4
  %9 = load ptr, ptr %1, align 8, !tbaa !4
  %10 = load i8, ptr %9, align 1, !tbaa !9
  %11 = sext i8 %10 to i32
  %12 = icmp ne i32 %11, 0
  br i1 %12, label %13, label %16

13:                                               ; preds = %8
  %14 = load ptr, ptr %1, align 8, !tbaa !4
  %15 = call ptr @xstrdup(ptr noundef %14)
  store ptr %15, ptr @exec_path_value, align 8, !tbaa !4
  br label %18

16:                                               ; preds = %8, %4
  %17 = call ptr @system_path(ptr noundef @.str.2)
  store ptr %17, ptr @exec_path_value, align 8, !tbaa !4
  br label %18

18:                                               ; preds = %16, %13
  call void @llvm.lifetime.end.p0(i64 8, ptr %1) #9
  br label %19

19:                                               ; preds = %18, %0
  %20 = load ptr, ptr @exec_path_value, align 8, !tbaa !4
  ret ptr %20
}