; Function Attrs: nounwind uwtable
define dso_local ptr @git_exec_path() local_unnamed_addr #1 {
  %1 = load ptr, ptr @exec_path_value, align 8, !tbaa !7
  %.not = icmp eq ptr %1, null
  br i1 %.not, label %2, label %9

2:                                                ; preds = %0
  %3 = tail call ptr @getenv(ptr noundef nonnull @.str.1) #10
  %.not3 = icmp eq ptr %3, null
  br i1 %.not3, label %6, label %4

4:                                                ; preds = %2
  %5 = load i8, ptr %3, align 1, !tbaa !4
  %.not4 = icmp eq i8 %5, 0
  br i1 %.not4, label %6, label %7

6:                                                ; preds = %4, %2
  br label %7

7:                                                ; preds = %4, %6
  %.str.2.sink = phi ptr [ @.str.2, %6 ], [ %3, %4 ]
  %8 = tail call ptr @xstrdup(ptr noundef nonnull %.str.2.sink) #10
  store ptr %8, ptr @exec_path_value, align 8, !tbaa !7
  br label %9

9:                                                ; preds = %7, %0
  %10 = phi ptr [ %8, %7 ], [ %1, %0 ]
  ret ptr %10
}